; Function Attrs: mustprogress nofree nosync nounwind memory(readwrite, inaccessiblemem: none) uwtable
define void @_ZN8proxygen7huffman8HuffTree9buildTreeEv(ptr nocapture noundef nonnull align 8 dereferenceable(23576) %this) local_unnamed_addr #0 align 2 {
entry:
  %codes_ = getelementptr inbounds i8, ptr %this, i64 8
  %bits_ = getelementptr inbounds i8, ptr %this, i64 16
  %table_.i = getelementptr inbounds i8, ptr %this, i64 24
  br label %for.body

for.body:                                         ; preds = %entry, %_ZN8proxygen7huffman8HuffTree6insertEjhh.exit
  %indvars.iv = phi i64 [ 0, %entry ], [ %indvars.iv.next, %_ZN8proxygen7huffman8HuffTree6insertEjhh.exit ]
  %0 = load ptr, ptr %codes_, align 8
  %arrayidx = getelementptr inbounds i32, ptr %0, i64 %indvars.iv
  %1 = load i32, ptr %arrayidx, align 4
  %2 = load ptr, ptr %bits_, align 8
  %arrayidx3 = getelementptr inbounds i8, ptr %2, i64 %indvars.iv
  %3 = load i8, ptr %arrayidx3, align 1
  %conv = trunc i64 %indvars.iv to i8
  %cmp15.i = icmp ugt i8 %3, 8
  br i1 %cmp15.i, label %while.body.i, label %_ZN8proxygen7huffman8HuffTree6insertEjhh.exit

while.body.i:                                     ; preds = %for.body, %if.end.i
  %code.addr.018.i = phi i32 [ %and21.i, %if.end.i ], [ %1, %for.body ]
  %bits.addr.017.i = phi i8 [ %conv20.i, %if.end.i ], [ %3, %for.body ]
  %snode.016.i = phi ptr [ %arrayidx17.i, %if.end.i ], [ %table_.i, %for.body ]
  %conv.i = zext i8 %bits.addr.017.i to i32
  %sub.i = add nsw i32 %conv.i, -8
  %shl.i = shl i32 255, %sub.i
  %and.i = and i32 %shl.i, %code.addr.018.i
  %shr.i = lshr i32 %and.i, %sub.i
  %idxprom.i = zext nneg i32 %shr.i to i64
  %arrayidx5.i = getelementptr inbounds [256 x %"struct.proxygen::huffman::HuffNode"], ptr %snode.016.i, i64 0, i64 %idxprom.i
  %metadata.i.i = getelementptr inbounds i8, ptr %arrayidx5.i, i64 1
  %bf.load.i.i = load i8, ptr %metadata.i.i, align 1
  %4 = and i8 %bf.load.i.i, 16
  %bf.cast.not.i.i = icmp eq i8 %4, 0
  br i1 %bf.cast.not.i.i, label %if.then.i, label %while.body.if.end_crit_edge.i

while.body.if.end_crit_edge.i:                    ; preds = %while.body.i
  %.pre.i = load i8, ptr %arrayidx5.i, align 1
  br label %if.end.i

if.then.i:                                        ; preds = %while.body.i
  %5 = load i32, ptr %this, align 8
  %inc.i = add i32 %5, 1
  store i32 %inc.i, ptr %this, align 8
  %bf.load.i = load i8, ptr %metadata.i.i, align 1
  %bf.set.i = or i8 %bf.load.i, 16
  store i8 %bf.set.i, ptr %metadata.i.i, align 1
  %6 = load i32, ptr %this, align 8
  %conv10.i = trunc i32 %6 to i8
  store i8 %conv10.i, ptr %arrayidx5.i, align 1
  br label %if.end.i

if.end.i:                                         ; preds = %if.then.i, %while.body.if.end_crit_edge.i
  %7 = phi i8 [ %.pre.i, %while.body.if.end_crit_edge.i ], [ %conv10.i, %if.then.i ]
  %idxprom16.i = zext i8 %7 to i64
  %arrayidx17.i = getelementptr inbounds [46 x %"struct.proxygen::huffman::SuperHuffNode"], ptr %table_.i, i64 0, i64 %idxprom16.i
  %conv20.i = trunc i32 %sub.i to i8
  %not.i = xor i32 %shl.i, -1
  %and21.i = and i32 %code.addr.018.i, %not.i
  %cmp.i = icmp ugt i8 %conv20.i, 8
  br i1 %cmp.i, label %while.body.i, label %_ZN8proxygen7huffman8HuffTree6insertEjhh.exit, !llvm.loop !4

_ZN8proxygen7huffman8HuffTree6insertEjhh.exit:    ; preds = %if.end.i, %for.body
  %snode.0.lcssa.i = phi ptr [ %table_.i, %for.body ], [ %arrayidx17.i, %if.end.i ]
  %bits.addr.0.lcssa.i = phi i8 [ %3, %for.body ], [ %conv20.i, %if.end.i ]
  %code.addr.0.lcssa.i = phi i32 [ %1, %for.body ], [ %and21.i, %if.end.i ]
  tail call void @_ZN8proxygen7huffman8HuffTree9fillIndexERNS0_13SuperHuffNodeEjhhh(ptr noundef nonnull align 8 dereferenceable(23576) %this, ptr noundef nonnull align 1 dereferenceable(512) %snode.0.lcssa.i, i32 noundef %code.addr.0.lcssa.i, i8 noundef zeroext %bits.addr.0.lcssa.i, i8 noundef zeroext %conv, i8 noundef zeroext %bits.addr.0.lcssa.i)
  %indvars.iv.next = add nuw nsw i64 %indvars.iv, 1
  %exitcond.not = icmp eq i64 %indvars.iv.next, 256
  br i1 %exitcond.not, label %for.end, label %for.body, !llvm.loop !6

for.end:                                          ; preds = %_ZN8proxygen7huffman8HuffTree6insertEjhh.exit
  ret void
}